; Function Attrs: mustprogress nounwind uwtable
define void @_ZN6casadi24CSparseCholeskyInterfaceD2Ev(ptr noundef nonnull align 8 dereferenceable(184) %0) unnamed_addr #3 align 2 personality ptr @__gxx_personality_v0 {
  store ptr getelementptr inbounds ({ [27 x ptr], [3 x ptr] }, ptr @_ZTVN6casadi24CSparseCholeskyInterfaceE, i64 0, i32 0, i64 2), ptr %0, align 8
  %2 = getelementptr inbounds i8, ptr %0, i64 168
  store ptr getelementptr inbounds ({ [27 x ptr], [3 x ptr] }, ptr @_ZTVN6casadi24CSparseCholeskyInterfaceE, i64 0, i32 1, i64 2), ptr %2, align 8
  invoke void @_ZN6casadi13ProtoFunction9clear_memEv(ptr noundef nonnull align 8 dereferenceable(168) %0)
          to label %3 unwind label %4

3:                                                ; preds = %1
  tail call void @_ZN6casadi14LinsolInternalD2Ev(ptr noundef nonnull align 8 dereferenceable(184) %0) #17
  ret void

4:                                                ; preds = %1
  %5 = landingpad { ptr, i32 }
          catch ptr null
  %6 = extractvalue { ptr, i32 } %5, 0
  tail call void @__clang_call_terminate(ptr %6) #20
  unreachable
}